; Function Attrs: mustprogress uwtable
define void @_ZN5mem_tC2Em(ptr noundef nonnull align 8 dereferenceable(64) initializes((0, 8), (16, 20), (24, 32)) %0, i64 noundef %1) unnamed_addr #5 align 2 personality ptr @__gxx_personality_v0 {
  store ptr getelementptr inbounds nuw inrange(-16, 64) (i8, ptr @_ZTV5mem_t, i64 16), ptr %0, align 8, !tbaa !27
  %3 = getelementptr inbounds nuw i8, ptr %0, i64 16
  store i32 0, ptr %3, align 8, !tbaa !4
  %4 = getelementptr inbounds nuw i8, ptr %0, i64 24
  store ptr null, ptr %4, align 8, !tbaa !13
  %5 = getelementptr inbounds nuw i8, ptr %0, i64 32
  store ptr %3, ptr %5, align 8, !tbaa !14
  %6 = getelementptr inbounds nuw i8, ptr %0, i64 40
  store ptr %3, ptr %6, align 8, !tbaa !15
  %7 = getelementptr inbounds nuw i8, ptr %0, i64 48
  store i64 0, ptr %7, align 8, !tbaa !16
  %8 = getelementptr inbounds nuw i8, ptr %0, i64 56
  store i64 %1, ptr %8, align 8, !tbaa !29
  %9 = icmp ne i64 %1, 0
  %10 = and i64 %1, 4095
  %.not = icmp eq i64 %10, 0
  %or.cond = and i1 %9, %.not
  br i1 %or.cond, label %18, label %11

11:                                               ; preds = %2
  %12 = tail call ptr @__cxa_allocate_exception(i64 16) #22
  invoke void @_ZNSt13runtime_errorC1EPKc(ptr noundef nonnull align 8 dereferenceable(16) %12, ptr noundef nonnull @.str)
          to label %13 unwind label %14

13:                                               ; preds = %11
  invoke void @__cxa_throw(ptr nonnull %12, ptr nonnull @_ZTISt13runtime_error, ptr nonnull @_ZNSt13runtime_errorD1Ev) #27
          to label %21 unwind label %16

14:                                               ; preds = %11
  %15 = landingpad { ptr, i32 }
          cleanup
  tail call void @__cxa_free_exception(ptr nonnull %12) #22
  br label %19

16:                                               ; preds = %13
  %17 = landingpad { ptr, i32 }
          cleanup
  br label %19

18:                                               ; preds = %2
  ret void

19:                                               ; preds = %16, %14
  %.pn = phi { ptr, i32 } [ %17, %16 ], [ %15, %14 ]
  %20 = getelementptr inbounds nuw i8, ptr %0, i64 8
  tail call void @_ZNSt3mapImPcSt4lessImESaISt4pairIKmS0_EEED2Ev(ptr noundef nonnull align 8 dereferenceable(48) %20) #22
  resume { ptr, i32 } %.pn

21:                                               ; preds = %13
  unreachable
}